target datalayout = "e-m:e-p270:32:32-p271:32:32-p272:64:64-i64:64-i128:128-f80:128-n8:16:32:64-S128"
target triple = "x86_64-unknown-linux-gnu"

%"class.icu_75::UMutex" = type { [40 x i8], %"struct.std::atomic", ptr }
%"struct.std::atomic" = type { %"struct.std::__atomic_base" }
%"struct.std::__atomic_base" = type { ptr }
%"class.icu_75::UObject" = type { ptr }
%"class.icu_75::UnicodeString" = type { %"class.icu_75::Replaceable", %"union.icu_75::UnicodeString::StackBufferOrFields" }
%"class.icu_75::Replaceable" = type { %"class.icu_75::UObject" }
%"union.icu_75::UnicodeString::StackBufferOrFields" = type { %struct.anon.0, [32 x i8] }
%struct.anon.0 = type { i16, i32, i32, ptr }

@_ZN6icu_75L5gLockE = internal global %"class.icu_75::UMutex" zeroinitializer, align 8

; Function Attrs: mustprogress nounwind uwtable
define linkonce_odr noundef i32 @_ZNK6icu_7513UnicodeString14getShortLengthEv(ptr noundef nonnull align 8 dereferenceable(64) %this) #0 comdat align 2 {
entry:
  %this.addr = alloca ptr, align 8
  store ptr %this, ptr %this.addr, align 8
  %this1 = load ptr, ptr %this.addr, align 8
  %fUnion = getelementptr inbounds %"class.icu_75::UnicodeString", ptr %this1, i32 0, i32 1
  %fLengthAndFlags = getelementptr inbounds %struct.anon.0, ptr %fUnion, i32 0, i32 0
  %0 = load i16, ptr %fLengthAndFlags, align 8
  %conv = sext i16 %0 to i32
  %shr = ashr i32 %conv, 5
  ret i32 %shr
}

; Function Attrs: mustprogress nounwind uwtable
define linkonce_odr noundef signext i8 @_ZNK6icu_7513UnicodeString14hasShortLengthEv(ptr noundef nonnull align 8 dereferenceable(64) %this) #0 comdat align 2 {
entry:
  %this.addr = alloca ptr, align 8
  store ptr %this, ptr %this.addr, align 8
  %this1 = load ptr, ptr %this.addr, align 8
  %fUnion = getelementptr inbounds %"class.icu_75::UnicodeString", ptr %this1, i32 0, i32 1
  %fLengthAndFlags = getelementptr inbounds %struct.anon.0, ptr %fUnion, i32 0, i32 0
  %0 = load i16, ptr %fLengthAndFlags, align 8
  %conv = sext i16 %0 to i32
  %cmp = icmp sge i32 %conv, 0
  %conv2 = zext i1 %cmp to i8
  ret i8 %conv2
}

; Function Attrs: mustprogress uwtable
define linkonce_odr noundef i32 @_ZNK6icu_7513UnicodeString6lengthEv(ptr noundef nonnull align 8 dereferenceable(64) %this) #1 comdat align 2 {
entry:
  %this.addr = alloca ptr, align 8
  store ptr %this, ptr %this.addr, align 8
  %this1 = load ptr, ptr %this.addr, align 8
  %call = call noundef signext i8 @_ZNK6icu_7513UnicodeString14hasShortLengthEv(ptr noundef nonnull align 8 dereferenceable(64) %this1)
  %tobool = icmp ne i8 %call, 0
  br i1 %tobool, label %cond.true, label %cond.false

cond.true:                                        ; preds = %entry
  %call2 = call noundef i32 @_ZNK6icu_7513UnicodeString14getShortLengthEv(ptr noundef nonnull align 8 dereferenceable(64) %this1)
  br label %cond.end

cond.false:                                       ; preds = %entry
  %fUnion = getelementptr inbounds %"class.icu_75::UnicodeString", ptr %this1, i32 0, i32 1
  %fLength = getelementptr inbounds %struct.anon.0, ptr %fUnion, i32 0, i32 1
  %0 = load i32, ptr %fLength, align 4
  br label %cond.end

cond.end:                                         ; preds = %cond.false, %cond.true
  %cond = phi i32 [ %call2, %cond.true ], [ %0, %cond.false ]
  ret i32 %cond
}

; Function Attrs: mustprogress uwtable
define linkonce_odr noundef nonnull align 8 dereferenceable(64) ptr @_ZN6icu_7513UnicodeString5setToEPKDsi(ptr noundef nonnull align 8 dereferenceable(64) %this, ptr noundef %srcChars, i32 noundef %srcLength) #1 comdat align 2 {
entry:
  %this.addr = alloca ptr, align 8
  %srcChars.addr = alloca ptr, align 8
  %srcLength.addr = alloca i32, align 4
  store ptr %this, ptr %this.addr, align 8
  store ptr %srcChars, ptr %srcChars.addr, align 8
  store i32 %srcLength, ptr %srcLength.addr, align 4
  %this1 = load ptr, ptr %this.addr, align 8
  call void @_ZN6icu_7513UnicodeString7unBogusEv(ptr noundef nonnull align 8 dereferenceable(64) %this1)
  %call = call noundef i32 @_ZNK6icu_7513UnicodeString6lengthEv(ptr noundef nonnull align 8 dereferenceable(64) %this1)
  %0 = load ptr, ptr %srcChars.addr, align 8
  %1 = load i32, ptr %srcLength.addr, align 4
  %call2 = call noundef nonnull align 8 dereferenceable(64) ptr @_ZN6icu_7513UnicodeString9doReplaceEiiPKDsii(ptr noundef nonnull align 8 dereferenceable(64) %this1, i32 noundef 0, i32 noundef %call, ptr noundef %0, i32 noundef 0, i32 noundef %1)
  ret ptr %call2
}

; Function Attrs: mustprogress nounwind uwtable
define linkonce_odr noundef signext i8 @_ZNK6icu_7513UnicodeString7isEmptyEv(ptr noundef nonnull align 8 dereferenceable(64) %this) #0 comdat align 2 {
entry:
  %this.addr = alloca ptr, align 8
  store ptr %this, ptr %this.addr, align 8
  %this1 = load ptr, ptr %this.addr, align 8
  %fUnion = getelementptr inbounds %"class.icu_75::UnicodeString", ptr %this1, i32 0, i32 1
  %fLengthAndFlags = getelementptr inbounds %struct.anon.0, ptr %fUnion, i32 0, i32 0
  %0 = load i16, ptr %fLengthAndFlags, align 8
  %conv = sext i16 %0 to i32
  %shr = ashr i32 %conv, 5
  %cmp = icmp eq i32 %shr, 0
  %conv2 = zext i1 %cmp to i8
  ret i8 %conv2
}

; Function Attrs: mustprogress uwtable
define noundef nonnull align 8 dereferenceable(64) ptr @_ZNK6icu_758TZGNCore22getGenericLocationNameERKNS_13UnicodeStringERS1_(ptr noundef nonnull align 8 dereferenceable(485) %this, ptr noundef nonnull align 8 dereferenceable(64) %tzCanonicalID, ptr noundef nonnull align 8 dereferenceable(64) %name) #1 align 2 {
entry:
  %retval = alloca ptr, align 8
  %this.addr = alloca ptr, align 8
  %tzCanonicalID.addr = alloca ptr, align 8
  %name.addr = alloca ptr, align 8
  %locname = alloca ptr, align 8
  %nonConstThis = alloca ptr, align 8
  store ptr %this, ptr %this.addr, align 8
  store ptr %tzCanonicalID, ptr %tzCanonicalID.addr, align 8
  store ptr %name, ptr %name.addr, align 8
  %this1 = load ptr, ptr %this.addr, align 8
  %0 = load ptr, ptr %tzCanonicalID.addr, align 8
  %call = call noundef signext i8 @_ZNK6icu_7513UnicodeString7isEmptyEv(ptr noundef nonnull align 8 dereferenceable(64) %0)
  %tobool = icmp ne i8 %call, 0
  br i1 %tobool, label %if.then, label %if.end

if.then:                                          ; preds = %entry
  %1 = load ptr, ptr %name.addr, align 8
  call void @_ZN6icu_7513UnicodeString10setToBogusEv(ptr noundef nonnull align 8 dereferenceable(64) %1)
  %2 = load ptr, ptr %name.addr, align 8
  store ptr %2, ptr %retval, align 8
  br label %return

if.end:                                           ; preds = %entry
  store ptr null, ptr %locname, align 8
  store ptr %this1, ptr %nonConstThis, align 8
  call void @umtx_lock_75(ptr noundef @_ZN6icu_75L5gLockE)
  %3 = load ptr, ptr %nonConstThis, align 8
  %4 = load ptr, ptr %tzCanonicalID.addr, align 8
  %call2 = call noundef ptr @_ZN6icu_758TZGNCore22getGenericLocationNameERKNS_13UnicodeStringE(ptr noundef nonnull align 8 dereferenceable(485) %3, ptr noundef nonnull align 8 dereferenceable(64) %4)
  store ptr %call2, ptr %locname, align 8
  call void @umtx_unlock_75(ptr noundef @_ZN6icu_75L5gLockE)
  %5 = load ptr, ptr %locname, align 8
  %cmp = icmp eq ptr %5, null
  br i1 %cmp, label %if.then3, label %if.else

if.then3:                                         ; preds = %if.end
  %6 = load ptr, ptr %name.addr, align 8
  call void @_ZN6icu_7513UnicodeString10setToBogusEv(ptr noundef nonnull align 8 dereferenceable(64) %6)
  br label %if.end6

if.else:                                          ; preds = %if.end
  %7 = load ptr, ptr %name.addr, align 8
  %8 = load ptr, ptr %locname, align 8
  %9 = load ptr, ptr %locname, align 8
  %call4 = call i32 @u_strlen_75(ptr noundef %9)
  %call5 = call noundef nonnull align 8 dereferenceable(64) ptr @_ZN6icu_7513UnicodeString5setToEPKDsi(ptr noundef nonnull align 8 dereferenceable(64) %7, ptr noundef %8, i32 noundef %call4)
  br label %if.end6

if.end6:                                          ; preds = %if.else, %if.then3
  %10 = load ptr, ptr %name.addr, align 8
  store ptr %10, ptr %retval, align 8
  br label %return

return:                                           ; preds = %if.end6, %if.then
  %11 = load ptr, ptr %retval, align 8
  ret ptr %11
}