; Function Attrs: mustprogress uwtable
define noundef nonnull align 8 dereferenceable(64) ptr @_ZNK6icu_758TZGNCore22getGenericLocationNameERKNS_13UnicodeStringERS1_(ptr noundef nonnull align 8 dereferenceable(485) %this, ptr noundef nonnull align 8 dereferenceable(64) %tzCanonicalID, ptr noundef nonnull returned align 8 dereferenceable(64) %name) local_unnamed_addr #1 align 2 {
entry:
  %fUnion.i = getelementptr inbounds i8, ptr %tzCanonicalID, i64 8
  %0 = load i16, ptr %fUnion.i, align 8
  %cmp.i = icmp ugt i16 %0, 31
  br i1 %cmp.i, label %if.end, label %if.then

if.then:                                          ; preds = %entry
  tail call void @_ZN6icu_7513UnicodeString10setToBogusEv(ptr noundef nonnull align 8 dereferenceable(64) %name)
  br label %return

if.end:                                           ; preds = %entry
  tail call void @umtx_lock_75(ptr noundef nonnull @_ZN6icu_75L5gLockE)
  %call2 = tail call noundef ptr @_ZN6icu_758TZGNCore22getGenericLocationNameERKNS_13UnicodeStringE(ptr noundef nonnull align 8 dereferenceable(485) %this, ptr noundef nonnull align 8 dereferenceable(64) %tzCanonicalID)
  tail call void @umtx_unlock_75(ptr noundef nonnull @_ZN6icu_75L5gLockE)
  %cmp = icmp eq ptr %call2, null
  br i1 %cmp, label %if.then3, label %if.else

if.then3:                                         ; preds = %if.end
  tail call void @_ZN6icu_7513UnicodeString10setToBogusEv(ptr noundef nonnull align 8 dereferenceable(64) %name)
  br label %return

if.else:                                          ; preds = %if.end
  %call4 = tail call i32 @u_strlen_75(ptr noundef nonnull %call2)
  tail call void @_ZN6icu_7513UnicodeString7unBogusEv(ptr noundef nonnull align 8 dereferenceable(64) %name)
  %fUnion.i.i.i = getelementptr inbounds i8, ptr %name, i64 8
  %1 = load i16, ptr %fUnion.i.i.i, align 8
  %cmp.i.i.i = icmp slt i16 %1, 0
  %2 = ashr i16 %1, 5
  %shr.i.i.i = sext i16 %2 to i32
  %fLength.i.i = getelementptr inbounds i8, ptr %name, i64 12
  %3 = load i32, ptr %fLength.i.i, align 4
  %cond.i.i = select i1 %cmp.i.i.i, i32 %3, i32 %shr.i.i.i
  %call2.i = tail call noundef nonnull align 8 dereferenceable(64) ptr @_ZN6icu_7513UnicodeString9doReplaceEiiPKDsii(ptr noundef nonnull align 8 dereferenceable(64) %name, i32 noundef 0, i32 noundef %cond.i.i, ptr noundef nonnull %call2, i32 noundef 0, i32 noundef %call4)
  br label %return

return:                                           ; preds = %if.then3, %if.else, %if.then
  ret ptr %name
}